target datalayout = "e-m:e-p270:32:32-p271:32:32-p272:64:64-i64:64-i128:128-f80:128-n8:16:32:64-S128"
target triple = "x86_64-pc-linux-gnu"

%"class.open_spiel::phantom_go::PhantomGoBoard" = type <{ %"struct.std::array.3", [2 x i8], %"struct.std::array.5", i8, i8, [2 x i8], i32, %"struct.std::array.6", [2 x i8], %"struct.std::array.7", i64, %"struct.std::array.8", i32, i32, i16, [6 x i8] }>
%"struct.std::array.3" = type { [2 x %"struct.std::array.4"] }
%"struct.std::array.4" = type { [361 x i8] }
%"struct.std::array.5" = type { [2 x i32] }
%"struct.std::array.6" = type { [441 x %"struct.open_spiel::phantom_go::PhantomGoBoard::Vertex"] }
%"struct.open_spiel::phantom_go::PhantomGoBoard::Vertex" = type { i16, i16, i8 }
%"struct.std::array.7" = type { [441 x %"struct.open_spiel::phantom_go::PhantomGoBoard::Chain"] }
%"struct.open_spiel::phantom_go::PhantomGoBoard::Chain" = type { i32, i16, i16, i16 }
%"struct.std::array.8" = type { [4 x i16] }
%class.anon.31 = type { ptr, ptr }

; Function Attrs: mustprogress nounwind uwtable
define linkonce_odr noundef zeroext i8 @_ZNK10open_spiel10phantom_go14PhantomGoBoard10PointColorEt(ptr noundef nonnull align 8 dereferenceable(8706) %0, i16 noundef zeroext %1) #4 comdat align 2 {
  %3 = alloca ptr, align 8
  %4 = alloca i16, align 2
  store ptr %0, ptr %3, align 8
  store i16 %1, ptr %4, align 2
  %5 = load ptr, ptr %3, align 8
  %6 = getelementptr inbounds nuw %"class.open_spiel::phantom_go::PhantomGoBoard", ptr %5, i32 0, i32 7
  %7 = load i16, ptr %4, align 2
  %8 = zext i16 %7 to i64
  %9 = call noundef nonnull align 2 dereferenceable(6) ptr @_ZNKSt5arrayIN10open_spiel10phantom_go14PhantomGoBoard6VertexELm441EEixEm(ptr noundef nonnull align 2 dereferenceable(2646) %6, i64 noundef %8) #3
  %10 = getelementptr inbounds nuw %"struct.open_spiel::phantom_go::PhantomGoBoard::Vertex", ptr %9, i32 0, i32 2
  %11 = load i8, ptr %10, align 2
  ret i8 %11
}

; Function Attrs: mustprogress nounwind uwtable
define void @_ZN10open_spiel10phantom_go14PhantomGoBoard5Chain11add_libertyEt(ptr noundef nonnull align 4 dereferenceable(12) %0, i16 noundef zeroext %1) #4 align 2 {
  %3 = alloca ptr, align 8
  %4 = alloca i16, align 2
  store ptr %0, ptr %3, align 8
  store i16 %1, ptr %4, align 2
  %5 = load ptr, ptr %3, align 8
  %6 = getelementptr inbounds nuw %"struct.open_spiel::phantom_go::PhantomGoBoard::Chain", ptr %5, i32 0, i32 3
  %7 = load i16, ptr %6, align 4
  %8 = zext i16 %7 to i32
  %9 = add nsw i32 %8, 1
  %10 = trunc i32 %9 to i16
  store i16 %10, ptr %6, align 4
  %11 = load i16, ptr %4, align 2
  %12 = zext i16 %11 to i32
  %13 = getelementptr inbounds nuw %"struct.open_spiel::phantom_go::PhantomGoBoard::Chain", ptr %5, i32 0, i32 1
  %14 = load i16, ptr %13, align 4
  %15 = zext i16 %14 to i32
  %16 = add nsw i32 %15, %12
  %17 = trunc i32 %16 to i16
  store i16 %17, ptr %13, align 4
  %18 = load i16, ptr %4, align 2
  %19 = zext i16 %18 to i32
  %20 = load i16, ptr %4, align 2
  %21 = zext i16 %20 to i32
  %22 = mul i32 %19, %21
  %23 = getelementptr inbounds nuw %"struct.open_spiel::phantom_go::PhantomGoBoard::Chain", ptr %5, i32 0, i32 0
  %24 = load i32, ptr %23, align 4
  %25 = add i32 %24, %22
  store i32 %25, ptr %23, align 4
  ret void
}

; Function Attrs: mustprogress uwtable
define linkonce_odr noundef zeroext i1 @_ZNK10open_spiel10phantom_go14PhantomGoBoard7IsEmptyEt(ptr noundef nonnull align 8 dereferenceable(8706) %0, i16 noundef zeroext %1) #5 comdat align 2 {
  %3 = alloca ptr, align 8
  %4 = alloca i16, align 2
  store ptr %0, ptr %3, align 8
  store i16 %1, ptr %4, align 2
  %5 = load ptr, ptr %3, align 8
  %6 = load i16, ptr %4, align 2
  %7 = call noundef zeroext i8 @_ZNK10open_spiel10phantom_go14PhantomGoBoard10PointColorEt(ptr noundef nonnull align 8 dereferenceable(8706) %5, i16 noundef zeroext %6)
  %8 = icmp eq i8 %7, 2
  ret i1 %8
}

; Function Attrs: mustprogress nounwind uwtable
define linkonce_odr noundef nonnull align 4 dereferenceable(12) ptr @_ZNSt14__array_traitsIN10open_spiel10phantom_go14PhantomGoBoard5ChainELm441EE6_S_refERA441_KS3_m(ptr noundef nonnull align 4 dereferenceable(5292) %0, i64 noundef %1) #4 comdat align 2 {
  %3 = alloca ptr, align 8
  %4 = alloca i64, align 8
  store ptr %0, ptr %3, align 8
  store i64 %1, ptr %4, align 8
  %5 = load ptr, ptr %3, align 8
  %6 = load i64, ptr %4, align 8
  %7 = getelementptr inbounds [441 x %"struct.open_spiel::phantom_go::PhantomGoBoard::Chain"], ptr %5, i64 0, i64 %6
  ret ptr %7
}

; Function Attrs: mustprogress nounwind uwtable
define linkonce_odr noundef nonnull align 2 dereferenceable(6) ptr @_ZNKSt5arrayIN10open_spiel10phantom_go14PhantomGoBoard6VertexELm441EEixEm(ptr noundef nonnull align 2 dereferenceable(2646) %0, i64 noundef %1) #4 comdat align 2 {
  %3 = alloca ptr, align 8
  %4 = alloca i64, align 8
  store ptr %0, ptr %3, align 8
  store i64 %1, ptr %4, align 8
  %5 = load ptr, ptr %3, align 8
  %6 = getelementptr inbounds nuw %"struct.std::array.6", ptr %5, i32 0, i32 0
  %7 = load i64, ptr %4, align 8
  %8 = call noundef nonnull align 2 dereferenceable(6) ptr @_ZNSt14__array_traitsIN10open_spiel10phantom_go14PhantomGoBoard6VertexELm441EE6_S_refERA441_KS3_m(ptr noundef nonnull align 2 dereferenceable(2646) %6, i64 noundef %7) #3
  ret ptr %8
}

; Function Attrs: mustprogress uwtable
define internal void @"_ZZN10open_spiel10phantom_go14PhantomGoBoard12InitNewChainEtENK3$_0clEt"(ptr noundef nonnull align 8 dereferenceable(16) %0, i16 noundef zeroext %1) #5 align 2 {
  %3 = alloca ptr, align 8
  %4 = alloca i16, align 2
  store ptr %0, ptr %3, align 8
  store i16 %1, ptr %4, align 2
  %5 = load ptr, ptr %3, align 8
  %6 = getelementptr inbounds nuw %class.anon.31, ptr %5, i32 0, i32 0
  %7 = load ptr, ptr %6, align 8
  %8 = load i16, ptr %4, align 2
  %9 = call noundef zeroext i1 @_ZNK10open_spiel10phantom_go14PhantomGoBoard7IsEmptyEt(ptr noundef nonnull align 8 dereferenceable(8706) %7, i16 noundef zeroext %8)
  br i1 %9, label %10, label %14

10:                                               ; preds = %2
  %11 = getelementptr inbounds nuw %class.anon.31, ptr %5, i32 0, i32 1
  %12 = load ptr, ptr %11, align 8
  %13 = load i16, ptr %4, align 2
  call void @_ZN10open_spiel10phantom_go14PhantomGoBoard5Chain11add_libertyEt(ptr noundef nonnull align 4 dereferenceable(12) %12, i16 noundef zeroext %13)
  br label %14

14:                                               ; preds = %10, %2
  ret void
}

; Function Attrs: mustprogress nounwind uwtable
define linkonce_odr noundef nonnull align 4 dereferenceable(12) ptr @_ZNSt5arrayIN10open_spiel10phantom_go14PhantomGoBoard5ChainELm441EEixEm(ptr noundef nonnull align 4 dereferenceable(5292) %0, i64 noundef %1) #4 comdat align 2 {
  %3 = alloca ptr, align 8
  %4 = alloca i64, align 8
  store ptr %0, ptr %3, align 8
  store i64 %1, ptr %4, align 8
  %5 = load ptr, ptr %3, align 8
  %6 = getelementptr inbounds nuw %"struct.std::array.7", ptr %5, i32 0, i32 0
  %7 = load i64, ptr %4, align 8
  %8 = call noundef nonnull align 4 dereferenceable(12) ptr @_ZNSt14__array_traitsIN10open_spiel10phantom_go14PhantomGoBoard5ChainELm441EE6_S_refERA441_KS3_m(ptr noundef nonnull align 4 dereferenceable(5292) %6, i64 noundef %7) #3
  ret ptr %8
}

; Function Attrs: mustprogress nounwind uwtable
define linkonce_odr noundef zeroext i16 @_ZNK10open_spiel10phantom_go14PhantomGoBoard9ChainHeadEt(ptr noundef nonnull align 8 dereferenceable(8706) %0, i16 noundef zeroext %1) #4 comdat align 2 {
  %3 = alloca ptr, align 8
  %4 = alloca i16, align 2
  store ptr %0, ptr %3, align 8
  store i16 %1, ptr %4, align 2
  %5 = load ptr, ptr %3, align 8
  %6 = getelementptr inbounds nuw %"class.open_spiel::phantom_go::PhantomGoBoard", ptr %5, i32 0, i32 7
  %7 = load i16, ptr %4, align 2
  %8 = zext i16 %7 to i64
  %9 = call noundef nonnull align 2 dereferenceable(6) ptr @_ZNKSt5arrayIN10open_spiel10phantom_go14PhantomGoBoard6VertexELm441EEixEm(ptr noundef nonnull align 2 dereferenceable(2646) %6, i64 noundef %8) #3
  %10 = getelementptr inbounds nuw %"struct.open_spiel::phantom_go::PhantomGoBoard::Vertex", ptr %9, i32 0, i32 0
  %11 = load i16, ptr %10, align 2
  ret i16 %11
}

; Function Attrs: mustprogress nounwind uwtable
define linkonce_odr noundef nonnull align 2 dereferenceable(6) ptr @_ZNSt14__array_traitsIN10open_spiel10phantom_go14PhantomGoBoard6VertexELm441EE6_S_refERA441_KS3_m(ptr noundef nonnull align 2 dereferenceable(2646) %0, i64 noundef %1) #4 comdat align 2 {
  %3 = alloca ptr, align 8
  %4 = alloca i64, align 8
  store ptr %0, ptr %3, align 8
  store i64 %1, ptr %4, align 8
  %5 = load ptr, ptr %3, align 8
  %6 = load i64, ptr %4, align 8
  %7 = getelementptr inbounds [441 x %"struct.open_spiel::phantom_go::PhantomGoBoard::Vertex"], ptr %5, i64 0, i64 %6
  ret ptr %7
}

; Function Attrs: mustprogress uwtable
define internal void @"_ZN10open_spiel10phantom_go12_GLOBAL__N_110NeighboursIZNS0_14PhantomGoBoard12InitNewChainEtE3$_0EEvtRKT_"(i16 noundef zeroext %0, ptr noundef nonnull align 8 dereferenceable(16) %1) #5 {
  %3 = alloca i16, align 2
  %4 = alloca ptr, align 8
  store i16 %0, ptr %3, align 2
  store ptr %1, ptr %4, align 8
  %5 = load ptr, ptr %4, align 8
  %6 = load i16, ptr %3, align 2
  %7 = zext i16 %6 to i32
  %8 = add nsw i32 %7, 21
  %9 = trunc i32 %8 to i16
  call void @"_ZZN10open_spiel10phantom_go14PhantomGoBoard12InitNewChainEtENK3$_0clEt"(ptr noundef nonnull align 8 dereferenceable(16) %5, i16 noundef zeroext %9)
  %10 = load ptr, ptr %4, align 8
  %11 = load i16, ptr %3, align 2
  %12 = zext i16 %11 to i32
  %13 = add nsw i32 %12, 1
  %14 = trunc i32 %13 to i16
  call void @"_ZZN10open_spiel10phantom_go14PhantomGoBoard12InitNewChainEtENK3$_0clEt"(ptr noundef nonnull align 8 dereferenceable(16) %10, i16 noundef zeroext %14)
  %15 = load ptr, ptr %4, align 8
  %16 = load i16, ptr %3, align 2
  %17 = zext i16 %16 to i32
  %18 = sub nsw i32 %17, 1
  %19 = trunc i32 %18 to i16
  call void @"_ZZN10open_spiel10phantom_go14PhantomGoBoard12InitNewChainEtENK3$_0clEt"(ptr noundef nonnull align 8 dereferenceable(16) %15, i16 noundef zeroext %19)
  %20 = load ptr, ptr %4, align 8
  %21 = load i16, ptr %3, align 2
  %22 = zext i16 %21 to i32
  %23 = sub nsw i32 %22, 21
  %24 = trunc i32 %23 to i16
  call void @"_ZZN10open_spiel10phantom_go14PhantomGoBoard12InitNewChainEtENK3$_0clEt"(ptr noundef nonnull align 8 dereferenceable(16) %20, i16 noundef zeroext %24)
  ret void
}

; Function Attrs: mustprogress nounwind uwtable
define void @_ZN10open_spiel10phantom_go14PhantomGoBoard5Chain5resetEv(ptr noundef nonnull align 4 dereferenceable(12) %0) #4 align 2 {
  %2 = alloca ptr, align 8
  store ptr %0, ptr %2, align 8
  %3 = load ptr, ptr %2, align 8
  %4 = getelementptr inbounds nuw %"struct.open_spiel::phantom_go::PhantomGoBoard::Chain", ptr %3, i32 0, i32 2
  store i16 0, ptr %4, align 2
  %5 = getelementptr inbounds nuw %"struct.open_spiel::phantom_go::PhantomGoBoard::Chain", ptr %3, i32 0, i32 3
  store i16 0, ptr %5, align 4
  %6 = getelementptr inbounds nuw %"struct.open_spiel::phantom_go::PhantomGoBoard::Chain", ptr %3, i32 0, i32 1
  store i16 0, ptr %6, align 4
  %7 = getelementptr inbounds nuw %"struct.open_spiel::phantom_go::PhantomGoBoard::Chain", ptr %3, i32 0, i32 0
  store i32 0, ptr %7, align 4
  ret void
}

; Function Attrs: mustprogress uwtable
define linkonce_odr noundef nonnull align 4 dereferenceable(12) ptr @_ZN10open_spiel10phantom_go14PhantomGoBoard5chainEt(ptr noundef nonnull align 8 dereferenceable(8706) %0, i16 noundef zeroext %1) #5 comdat align 2 {
  %3 = alloca ptr, align 8
  %4 = alloca i16, align 2
  store ptr %0, ptr %3, align 8
  store i16 %1, ptr %4, align 2
  %5 = load ptr, ptr %3, align 8
  %6 = getelementptr inbounds nuw %"class.open_spiel::phantom_go::PhantomGoBoard", ptr %5, i32 0, i32 9
  %7 = load i16, ptr %4, align 2
  %8 = call noundef zeroext i16 @_ZNK10open_spiel10phantom_go14PhantomGoBoard9ChainHeadEt(ptr noundef nonnull align 8 dereferenceable(8706) %5, i16 noundef zeroext %7)
  %9 = zext i16 %8 to i64
  %10 = call noundef nonnull align 4 dereferenceable(12) ptr @_ZNSt5arrayIN10open_spiel10phantom_go14PhantomGoBoard5ChainELm441EEixEm(ptr noundef nonnull align 4 dereferenceable(5292) %6, i64 noundef %9) #3
  ret ptr %10
}

; Function Attrs: mustprogress nounwind uwtable
define linkonce_odr noundef nonnull align 2 dereferenceable(6) ptr @_ZNSt5arrayIN10open_spiel10phantom_go14PhantomGoBoard6VertexELm441EEixEm(ptr noundef nonnull align 2 dereferenceable(2646) %0, i64 noundef %1) #4 comdat align 2 {
  %3 = alloca ptr, align 8
  %4 = alloca i64, align 8
  store ptr %0, ptr %3, align 8
  store i64 %1, ptr %4, align 8
  %5 = load ptr, ptr %3, align 8
  %6 = getelementptr inbounds nuw %"struct.std::array.6", ptr %5, i32 0, i32 0
  %7 = load i64, ptr %4, align 8
  %8 = call noundef nonnull align 2 dereferenceable(6) ptr @_ZNSt14__array_traitsIN10open_spiel10phantom_go14PhantomGoBoard6VertexELm441EE6_S_refERA441_KS3_m(ptr noundef nonnull align 2 dereferenceable(2646) %6, i64 noundef %7) #3
  ret ptr %8
}

; Function Attrs: mustprogress uwtable
define void @_ZN10open_spiel10phantom_go14PhantomGoBoard12InitNewChainEt(ptr noundef nonnull align 8 dereferenceable(8706) %0, i16 noundef zeroext %1) #5 align 2 {
  %3 = alloca ptr, align 8
  %4 = alloca i16, align 2
  %5 = alloca ptr, align 8
  %6 = alloca %class.anon.31, align 8
  store ptr %0, ptr %3, align 8
  store i16 %1, ptr %4, align 2
  %7 = load ptr, ptr %3, align 8
  %8 = load i16, ptr %4, align 2
  %9 = getelementptr inbounds nuw %"class.open_spiel::phantom_go::PhantomGoBoard", ptr %7, i32 0, i32 7
  %10 = load i16, ptr %4, align 2
  %11 = zext i16 %10 to i64
  %12 = call noundef nonnull align 2 dereferenceable(6) ptr @_ZNSt5arrayIN10open_spiel10phantom_go14PhantomGoBoard6VertexELm441EEixEm(ptr noundef nonnull align 2 dereferenceable(2646) %9, i64 noundef %11) #3
  %13 = getelementptr inbounds nuw %"struct.open_spiel::phantom_go::PhantomGoBoard::Vertex", ptr %12, i32 0, i32 0
  store i16 %8, ptr %13, align 2
  %14 = load i16, ptr %4, align 2
  %15 = getelementptr inbounds nuw %"class.open_spiel::phantom_go::PhantomGoBoard", ptr %7, i32 0, i32 7
  %16 = load i16, ptr %4, align 2
  %17 = zext i16 %16 to i64
  %18 = call noundef nonnull align 2 dereferenceable(6) ptr @_ZNSt5arrayIN10open_spiel10phantom_go14PhantomGoBoard6VertexELm441EEixEm(ptr noundef nonnull align 2 dereferenceable(2646) %15, i64 noundef %17) #3
  %19 = getelementptr inbounds nuw %"struct.open_spiel::phantom_go::PhantomGoBoard::Vertex", ptr %18, i32 0, i32 1
  store i16 %14, ptr %19, align 2
  %20 = load i16, ptr %4, align 2
  %21 = call noundef nonnull align 4 dereferenceable(12) ptr @_ZN10open_spiel10phantom_go14PhantomGoBoard5chainEt(ptr noundef nonnull align 8 dereferenceable(8706) %7, i16 noundef zeroext %20)
  store ptr %21, ptr %5, align 8
  %22 = load ptr, ptr %5, align 8
  call void @_ZN10open_spiel10phantom_go14PhantomGoBoard5Chain5resetEv(ptr noundef nonnull align 4 dereferenceable(12) %22)
  %23 = load ptr, ptr %5, align 8
  %24 = getelementptr inbounds nuw %"struct.open_spiel::phantom_go::PhantomGoBoard::Chain", ptr %23, i32 0, i32 2
  %25 = load i16, ptr %24, align 2
  %26 = zext i16 %25 to i32
  %27 = add nsw i32 %26, 1
  %28 = trunc i32 %27 to i16
  store i16 %28, ptr %24, align 2
  %29 = load i16, ptr %4, align 2
  %30 = getelementptr inbounds nuw %class.anon.31, ptr %6, i32 0, i32 0
  store ptr %7, ptr %30, align 8
  %31 = getelementptr inbounds nuw %class.anon.31, ptr %6, i32 0, i32 1
  %32 = load ptr, ptr %5, align 8
  store ptr %32, ptr %31, align 8
  call void @"_ZN10open_spiel10phantom_go12_GLOBAL__N_110NeighboursIZNS0_14PhantomGoBoard12InitNewChainEtE3$_0EEvtRKT_"(i16 noundef zeroext %29, ptr noundef nonnull align 8 dereferenceable(16) %6)
  ret void
}