; Function Attrs: mustprogress nofree norecurse nosync nounwind willreturn memory(argmem: readwrite) uwtable
define void @_ZN10open_spiel10phantom_go14PhantomGoBoard12InitNewChainEt(ptr nocapture noundef nonnull align 8 dereferenceable(8706) %0, i16 noundef zeroext %1) local_unnamed_addr #4 align 2 {
  %3 = getelementptr inbounds nuw i8, ptr %0, i64 740
  %4 = zext i16 %1 to i64
  %5 = getelementptr inbounds [441 x %"struct.open_spiel::phantom_go::PhantomGoBoard::Vertex"], ptr %3, i64 0, i64 %4
  store i16 %1, ptr %5, align 2
  %6 = getelementptr inbounds nuw i8, ptr %5, i64 2
  store i16 %1, ptr %6, align 2
  %7 = getelementptr inbounds nuw i8, ptr %0, i64 3388
  %8 = getelementptr inbounds [441 x %"struct.open_spiel::phantom_go::PhantomGoBoard::Chain"], ptr %7, i64 0, i64 %4
  tail call void @llvm.memset.p0.i64(ptr noundef nonnull align 4 dereferenceable(10) %8, i8 0, i64 10, i1 false)
  %9 = getelementptr inbounds nuw i8, ptr %8, i64 6
  store i16 1, ptr %9, align 2
  %10 = add i16 %1, 21
  %11 = zext i16 %10 to i64
  %12 = getelementptr inbounds [441 x %"struct.open_spiel::phantom_go::PhantomGoBoard::Vertex"], ptr %3, i64 0, i64 %11, i32 2
  %13 = load i8, ptr %12, align 2
  %14 = icmp eq i8 %13, 2
  br i1 %14, label %15, label %"_ZZN10open_spiel10phantom_go14PhantomGoBoard12InitNewChainEtENK3$_0clEt.exit.i"

15:                                               ; preds = %2
  %16 = getelementptr inbounds nuw i8, ptr %8, i64 8
  store i16 1, ptr %16, align 4
  %17 = zext i16 %10 to i32
  %18 = getelementptr inbounds nuw i8, ptr %8, i64 4
  store i16 %10, ptr %18, align 4
  %19 = mul nuw i32 %17, %17
  store i32 %19, ptr %8, align 4
  br label %"_ZZN10open_spiel10phantom_go14PhantomGoBoard12InitNewChainEtENK3$_0clEt.exit.i"

"_ZZN10open_spiel10phantom_go14PhantomGoBoard12InitNewChainEtENK3$_0clEt.exit.i": ; preds = %15, %2
  %20 = phi i32 [ %19, %15 ], [ 0, %2 ]
  %21 = phi i16 [ %10, %15 ], [ 0, %2 ]
  %22 = phi i16 [ 1, %15 ], [ 0, %2 ]
  %23 = add i16 %1, 1
  %24 = zext i16 %23 to i64
  %25 = getelementptr inbounds [441 x %"struct.open_spiel::phantom_go::PhantomGoBoard::Vertex"], ptr %3, i64 0, i64 %24, i32 2
  %26 = load i8, ptr %25, align 2
  %27 = icmp eq i8 %26, 2
  br i1 %27, label %28, label %"_ZZN10open_spiel10phantom_go14PhantomGoBoard12InitNewChainEtENK3$_0clEt.exit14.i"

28:                                               ; preds = %"_ZZN10open_spiel10phantom_go14PhantomGoBoard12InitNewChainEtENK3$_0clEt.exit.i"
  %29 = getelementptr inbounds nuw i8, ptr %8, i64 8
  %30 = add nuw nsw i16 %22, 1
  store i16 %30, ptr %29, align 4
  %31 = zext i16 %23 to i32
  %32 = getelementptr inbounds nuw i8, ptr %8, i64 4
  %33 = add i16 %21, %23
  store i16 %33, ptr %32, align 4
  %34 = mul nuw i32 %31, %31
  %35 = add i32 %20, %34
  store i32 %35, ptr %8, align 4
  br label %"_ZZN10open_spiel10phantom_go14PhantomGoBoard12InitNewChainEtENK3$_0clEt.exit14.i"

"_ZZN10open_spiel10phantom_go14PhantomGoBoard12InitNewChainEtENK3$_0clEt.exit14.i": ; preds = %28, %"_ZZN10open_spiel10phantom_go14PhantomGoBoard12InitNewChainEtENK3$_0clEt.exit.i"
  %36 = phi i32 [ %35, %28 ], [ %20, %"_ZZN10open_spiel10phantom_go14PhantomGoBoard12InitNewChainEtENK3$_0clEt.exit.i" ]
  %37 = phi i16 [ %33, %28 ], [ %21, %"_ZZN10open_spiel10phantom_go14PhantomGoBoard12InitNewChainEtENK3$_0clEt.exit.i" ]
  %38 = phi i16 [ %30, %28 ], [ %22, %"_ZZN10open_spiel10phantom_go14PhantomGoBoard12InitNewChainEtENK3$_0clEt.exit.i" ]
  %39 = add i16 %1, -1
  %40 = zext i16 %39 to i64
  %41 = getelementptr inbounds [441 x %"struct.open_spiel::phantom_go::PhantomGoBoard::Vertex"], ptr %3, i64 0, i64 %40, i32 2
  %42 = load i8, ptr %41, align 2
  %43 = icmp eq i8 %42, 2
  br i1 %43, label %44, label %"_ZZN10open_spiel10phantom_go14PhantomGoBoard12InitNewChainEtENK3$_0clEt.exit15.i"

44:                                               ; preds = %"_ZZN10open_spiel10phantom_go14PhantomGoBoard12InitNewChainEtENK3$_0clEt.exit14.i"
  %45 = getelementptr inbounds nuw i8, ptr %8, i64 8
  %46 = add nuw nsw i16 %38, 1
  store i16 %46, ptr %45, align 4
  %47 = zext i16 %39 to i32
  %48 = getelementptr inbounds nuw i8, ptr %8, i64 4
  %49 = add i16 %37, %39
  store i16 %49, ptr %48, align 4
  %50 = mul nuw i32 %47, %47
  %51 = add i32 %36, %50
  store i32 %51, ptr %8, align 4
  br label %"_ZZN10open_spiel10phantom_go14PhantomGoBoard12InitNewChainEtENK3$_0clEt.exit15.i"

"_ZZN10open_spiel10phantom_go14PhantomGoBoard12InitNewChainEtENK3$_0clEt.exit15.i": ; preds = %44, %"_ZZN10open_spiel10phantom_go14PhantomGoBoard12InitNewChainEtENK3$_0clEt.exit14.i"
  %52 = phi i32 [ %51, %44 ], [ %36, %"_ZZN10open_spiel10phantom_go14PhantomGoBoard12InitNewChainEtENK3$_0clEt.exit14.i" ]
  %53 = phi i16 [ %49, %44 ], [ %37, %"_ZZN10open_spiel10phantom_go14PhantomGoBoard12InitNewChainEtENK3$_0clEt.exit14.i" ]
  %54 = phi i16 [ %46, %44 ], [ %38, %"_ZZN10open_spiel10phantom_go14PhantomGoBoard12InitNewChainEtENK3$_0clEt.exit14.i" ]
  %55 = add i16 %1, -21
  %56 = zext i16 %55 to i64
  %57 = getelementptr inbounds [441 x %"struct.open_spiel::phantom_go::PhantomGoBoard::Vertex"], ptr %3, i64 0, i64 %56, i32 2
  %58 = load i8, ptr %57, align 2
  %59 = icmp eq i8 %58, 2
  br i1 %59, label %60, label %"_ZN10open_spiel10phantom_go12_GLOBAL__N_110NeighboursIZNS0_14PhantomGoBoard12InitNewChainEtE3$_0EEvtRKT_.exit"

60:                                               ; preds = %"_ZZN10open_spiel10phantom_go14PhantomGoBoard12InitNewChainEtENK3$_0clEt.exit15.i"
  %61 = getelementptr inbounds nuw i8, ptr %8, i64 8
  %62 = add nuw nsw i16 %54, 1
  store i16 %62, ptr %61, align 4
  %63 = zext i16 %55 to i32
  %64 = getelementptr inbounds nuw i8, ptr %8, i64 4
  %65 = add i16 %53, %55
  store i16 %65, ptr %64, align 4
  %66 = mul nuw i32 %63, %63
  %67 = add i32 %52, %66
  store i32 %67, ptr %8, align 4
  br label %"_ZN10open_spiel10phantom_go12_GLOBAL__N_110NeighboursIZNS0_14PhantomGoBoard12InitNewChainEtE3$_0EEvtRKT_.exit"

"_ZN10open_spiel10phantom_go12_GLOBAL__N_110NeighboursIZNS0_14PhantomGoBoard12InitNewChainEtE3$_0EEvtRKT_.exit": ; preds = %"_ZZN10open_spiel10phantom_go14PhantomGoBoard12InitNewChainEtENK3$_0clEt.exit15.i", %60
  ret void
}